	.file	"bdf_8x8.c"
	.text
.Ltext0:
	.file 0 "/home/dev/Projects/bleskomat/bleskomat-bills-firmware/tools/bdfconv" "bdf_8x8.c"
	.type	bg_8x8_convert, @function
bg_8x8_convert:
.LFB6:
	.file 1 "bdf_8x8.c"
	.loc 1 23 1
	.cfi_startproc
	endbr64
	pushq	%rbp
	.cfi_def_cfa_offset 16
	.cfi_offset 6, -16
	movq	%rsp, %rbp
	.cfi_def_cfa_register 6
	subq	$48, %rsp
	movq	%rdi, -24(%rbp)
	movq	%rsi, -32(%rbp)
	movl	%edx, -36(%rbp)
	movl	%ecx, -40(%rbp)
	.loc 1 28 6
	cmpq	$0, -32(%rbp)
	jne	.L2
	.loc 1 29 9
	movq	-24(%rbp), %rax
	addq	$40, %rax
	movq	%rax, -32(%rbp)
.L2:
	.loc 1 56 15
	movq	-32(%rbp), %rax
	movq	16(%rax), %rax
	.loc 1 56 10
	movl	%eax, -12(%rbp)
	.loc 1 56 3
	jmp	.L3
.L9:
	.loc 1 58 7
	movl	$0, -4(%rbp)
	.loc 1 59 17
	movq	-32(%rbp), %rax
	movq	24(%rax), %rax
	.loc 1 59 20
	movl	%eax, %edx
	.loc 1 59 24
	movq	-32(%rbp), %rax
	movq	8(%rax), %rax
	.loc 1 59 20
	addl	%edx, %eax
	.loc 1 59 27
	subl	$1, %eax
	.loc 1 59 12
	movl	%eax, -8(%rbp)
	.loc 1 59 5
	jmp	.L4
.L6:
	.loc 1 61 9
	sarl	-4(%rbp)
	.loc 1 62 12
	movl	-8(%rbp), %edx
	movl	-40(%rbp), %eax
	addl	%eax, %edx
	movl	-12(%rbp), %ecx
	movl	-36(%rbp), %eax
	addl	%eax, %ecx
	movq	-24(%rbp), %rax
	movl	%ecx, %esi
	movq	%rax, %rdi
	call	bg_GetBBXPixel@PLT
	.loc 1 62 10
	testl	%eax, %eax
	je	.L5
	.loc 1 64 4
	orl	$128, -4(%rbp)
.L5:
	.loc 1 59 45 discriminator 2
	subl	$1, -8(%rbp)
.L4:
	.loc 1 59 33 discriminator 1
	movl	-8(%rbp), %eax
	movslq	%eax, %rdx
	.loc 1 59 39 discriminator 1
	movq	-32(%rbp), %rax
	movq	24(%rax), %rax
	.loc 1 59 33 discriminator 1
	cmpq	%rax, %rdx
	jge	.L6
	.loc 1 67 10
	movl	-4(%rbp), %eax
	movzbl	%al, %edx
	movq	-24(%rbp), %rax
	movl	%edx, %esi
	movq	%rax, %rdi
	call	bg_AddTargetData@PLT
	.loc 1 67 8
	testl	%eax, %eax
	jns	.L7
	.loc 1 68 14
	movl	$0, %eax
	jmp	.L8
.L7:
	.loc 1 56 42 discriminator 2
	addl	$1, -12(%rbp)
.L3:
	.loc 1 56 22 discriminator 1
	movl	-12(%rbp), %eax
	movslq	%eax, %rdx
	.loc 1 56 27 discriminator 1
	movq	-32(%rbp), %rax
	movq	16(%rax), %rcx
	.loc 1 56 36 discriminator 1
	movq	-32(%rbp), %rax
	movq	(%rax), %rax
	.loc 1 56 31 discriminator 1
	addq	%rcx, %rax
	.loc 1 56 22 discriminator 1
	cmpq	%rax, %rdx
	jl	.L9
	.loc 1 71 10
	movl	$1, %eax
.L8:
	.loc 1 72 1
	leave
	.cfi_def_cfa 7, 8
	ret
	.cfi_endproc
.LFE6:
	.size	bg_8x8_convert, .-bg_8x8_convert
	.section	.rodata
	.align 8
.LC0:
	.string	"Generate8x8Font: Error, glyph width is not multiple of 8, width=%d, encoding=%d"
	.align 8
.LC1:
	.string	"Generate8x8Font: Error, glyph height is not multiple of 8, height=%d, encoding=%d"
	.align 8
.LC2:
	.string	"Generate8x8Font: Error, 8x8 conversion, encoding=%d"
	.align 8
.LC3:
	.string	"Generate8x8Font: Error, glyph size incorrect, size=%d, encoding=%d"
	.align 8
.LC4:
	.string	"Generate8x8Font: Tile size width=%d height=%d"
.LC5:
	.string	"Generate8x8Font: Font size %d"
	.text
	.globl	bf_Generate8x8Font
	.type	bf_Generate8x8Font, @function
bf_Generate8x8Font:
.LFB7:
	.loc 1 76 1
	.cfi_startproc
	endbr64
	pushq	%rbp
	.cfi_def_cfa_offset 16
	.cfi_offset 6, -16
	movq	%rsp, %rbp
	.cfi_def_cfa_register 6
	subq	$112, %rsp
	movq	%rdi, -104(%rbp)
	movl	%esi, -108(%rbp)
	movl	%edx, -112(%rbp)
	.loc 1 76 1
	movq	%fs:40, %rax
	movq	%rax, -8(%rbp)
	xorl	%eax, %eax
	.loc 1 86 10
	movl	$0, -88(%rbp)
	.loc 1 86 3
	jmp	.L11
.L20:
	.loc 1 88 12
	movq	-104(%rbp), %rax
	movq	8(%rax), %rdx
	.loc 1 88 24
	movl	-88(%rbp), %eax
	cltq
	salq	$3, %rax
	addq	%rdx, %rax
	.loc 1 88 8
	movq	(%rax), %rax
	movq	%rax, -56(%rbp)
	.loc 1 89 12
	movq	-56(%rbp), %rax
	movq	16(%rax), %rax
	.loc 1 89 8
	testq	%rax, %rax
	js	.L12
	.loc 1 91 7
	movq	-56(%rbp), %rdx
	leaq	-48(%rbp), %rcx
	movq	-104(%rbp), %rax
	movq	%rcx, %rsi
	movq	%rax, %rdi
	call	bf_copy_bbx_and_update_shift@PLT
	.loc 1 93 22
	movq	-48(%rbp), %rax
	.loc 1 93 25
	andl	$7, %eax
	.loc 1 93 10
	testq	%rax, %rax
	je	.L13
	.loc 1 95 2
	movq	-56(%rbp), %rax
	movq	8(%rax), %rcx
	movq	-48(%rbp), %rdx
	movq	-104(%rbp), %rax
	leaq	.LC0(%rip), %rsi
	movq	%rax, %rdi
	movl	$0, %eax
	call	bf_Log@PLT
	jmp	.L12
.L13:
	.loc 1 99 17
	movq	-40(%rbp), %rax
	.loc 1 99 20
	andl	$7, %eax
	.loc 1 99 5
	testq	%rax, %rax
	je	.L14
	.loc 1 101 4
	movq	-56(%rbp), %rax
	movq	8(%rax), %rcx
	movq	-40(%rbp), %rdx
	movq	-104(%rbp), %rax
	leaq	.LC1(%rip), %rsi
	movq	%rax, %rdi
	movl	$0, %eax
	call	bf_Log@PLT
	jmp	.L12
.L14:
	.loc 1 105 4
	movq	-56(%rbp), %rax
	movq	%rax, %rdi
	call	bg_ClearTargetData@PLT
	.loc 1 106 11
	movl	$0, -60(%rbp)
	.loc 1 106 4
	jmp	.L15
.L19:
	.loc 1 108 13
	movl	$0, -64(%rbp)
	.loc 1 108 6
	jmp	.L16
.L18:
	.loc 1 112 60
	movq	-104(%rbp), %rax
	movl	1308(%rax), %eax
	.loc 1 112 73
	subl	-60(%rbp), %eax
	.loc 1 112 75
	subl	$1, %eax
	.loc 1 112 56
	leal	0(,%rax,8), %edx
	.loc 1 112 13
	movl	-112(%rbp), %eax
	leal	(%rdx,%rax), %ecx
	.loc 1 112 48
	movl	-64(%rbp), %eax
	leal	0(,%rax,8), %edx
	.loc 1 112 13
	movl	-108(%rbp), %eax
	addl	%eax, %edx
	leaq	-48(%rbp), %rsi
	movq	-56(%rbp), %rax
	movq	%rax, %rdi
	call	bg_8x8_convert
	.loc 1 112 11
	testl	%eax, %eax
	jne	.L17
	.loc 1 114 3
	movq	-56(%rbp), %rax
	movq	8(%rax), %rcx
	movq	-56(%rbp), %rax
	movl	116(%rax), %edx
	movq	-104(%rbp), %rax
	leaq	.LC2(%rip), %rsi
	movq	%rax, %rdi
	movl	$0, %eax
	call	bf_Log@PLT
.L17:
	.loc 1 108 40 discriminator 2
	addl	$1, -64(%rbp)
.L16:
	.loc 1 108 24 discriminator 1
	movq	-104(%rbp), %rax
	movl	1304(%rax), %eax
	.loc 1 108 20 discriminator 1
	cmpl	%eax, -64(%rbp)
	jl	.L18
	.loc 1 106 38 discriminator 2
	addl	$1, -60(%rbp)
.L15:
	.loc 1 106 22 discriminator 1
	movq	-104(%rbp), %rax
	movl	1308(%rax), %eax
	.loc 1 106 18 discriminator 1
	cmpl	%eax, -60(%rbp)
	jl	.L19
.L12:
	.loc 1 86 35 discriminator 2
	addl	$1, -88(%rbp)
.L11:
	.loc 1 86 21 discriminator 1
	movq	-104(%rbp), %rax
	movl	16(%rax), %eax
	.loc 1 86 17 discriminator 1
	cmpl	%eax, -88(%rbp)
	jl	.L20
	.loc 1 125 9
	movl	$-1, -76(%rbp)
	.loc 1 126 8
	movl	$-1, -72(%rbp)
	.loc 1 128 10
	movl	$0, -84(%rbp)
	.loc 1 128 3
	jmp	.L21
.L27:
	.loc 1 130 12
	movl	$0, -88(%rbp)
	.loc 1 130 5
	jmp	.L22
.L26:
	.loc 1 132 14
	movq	-104(%rbp), %rax
	movq	8(%rax), %rdx
	.loc 1 132 26
	movl	-88(%rbp), %eax
	cltq
	salq	$3, %rax
	addq	%rdx, %rax
	.loc 1 132 10
	movq	(%rax), %rax
	movq	%rax, -56(%rbp)
	.loc 1 133 14
	movq	-56(%rbp), %rax
	movq	16(%rax), %rdx
	.loc 1 133 23
	movl	-84(%rbp), %eax
	cltq
	.loc 1 133 10
	cmpq	%rax, %rdx
	jne	.L23
	.loc 1 135 9
	movq	-56(%rbp), %rax
	movq	104(%rax), %rax
	.loc 1 135 5
	testq	%rax, %rax
	je	.L23
	.loc 1 139 11
	movq	-56(%rbp), %rax
	movl	116(%rax), %edx
	.loc 1 139 29
	movq	-104(%rbp), %rax
	movl	1304(%rax), %ecx
	.loc 1 139 45
	movq	-104(%rbp), %rax
	movl	1308(%rax), %eax
	.loc 1 139 42
	imull	%ecx, %eax
	.loc 1 139 58
	sall	$3, %eax
	.loc 1 139 7
	cmpl	%eax, %edx
	je	.L24
	.loc 1 141 6
	movq	-56(%rbp), %rax
	movq	8(%rax), %rcx
	movq	-56(%rbp), %rax
	movl	116(%rax), %edx
	movq	-104(%rbp), %rax
	leaq	.LC3(%rip), %rsi
	movq	%rax, %rdi
	movl	$0, %eax
	call	bf_Log@PLT
	jmp	.L23
.L24:
	.loc 1 145 9
	cmpl	$0, -76(%rbp)
	jns	.L25
	.loc 1 146 14
	movl	-84(%rbp), %eax
	movl	%eax, -76(%rbp)
.L25:
	.loc 1 147 11
	movl	-84(%rbp), %eax
	movl	%eax, -72(%rbp)
.L23:
	.loc 1 130 37 discriminator 2
	addl	$1, -88(%rbp)
.L22:
	.loc 1 130 23 discriminator 1
	movq	-104(%rbp), %rax
	movl	16(%rax), %eax
	.loc 1 130 19 discriminator 1
	cmpl	%eax, -88(%rbp)
	jl	.L26
	.loc 1 128 25 discriminator 2
	addl	$1, -84(%rbp)
.L21:
	.loc 1 128 17 discriminator 1
	cmpl	$255, -84(%rbp)
	jle	.L27
	.loc 1 156 3
	movl	-76(%rbp), %eax
	movzbl	%al, %edx
	movq	-104(%rbp), %rax
	movl	%edx, %esi
	movq	%rax, %rdi
	call	bf_AddTargetData@PLT
	.loc 1 157 3
	movl	-72(%rbp), %eax
	movzbl	%al, %edx
	movq	-104(%rbp), %rax
	movl	%edx, %esi
	movq	%rax, %rdi
	call	bf_AddTargetData@PLT
	.loc 1 158 26
	movq	-104(%rbp), %rax
	movl	1304(%rax), %eax
	.loc 1 158 3
	movzbl	%al, %edx
	movq	-104(%rbp), %rax
	movl	%edx, %esi
	movq	%rax, %rdi
	call	bf_AddTargetData@PLT
	.loc 1 159 26
	movq	-104(%rbp), %rax
	movl	1308(%rax), %eax
	.loc 1 159 3
	movzbl	%al, %edx
	movq	-104(%rbp), %rax
	movl	%edx, %esi
	movq	%rax, %rdi
	call	bf_AddTargetData@PLT
	.loc 1 160 3
	movq	-104(%rbp), %rax
	movl	1308(%rax), %ecx
	movq	-104(%rbp), %rax
	movl	1304(%rax), %edx
	movq	-104(%rbp), %rax
	leaq	.LC4(%rip), %rsi
	movq	%rax, %rdi
	movl	$0, %eax
	call	bf_Log@PLT
	.loc 1 163 10
	movl	-76(%rbp), %eax
	movl	%eax, -84(%rbp)
	.loc 1 163 3
	jmp	.L28
.L37:
	.loc 1 165 22
	movl	$0, -68(%rbp)
	.loc 1 166 12
	movl	$0, -88(%rbp)
	.loc 1 166 5
	jmp	.L29
.L33:
	.loc 1 168 14
	movq	-104(%rbp), %rax
	movq	8(%rax), %rdx
	.loc 1 168 26
	movl	-88(%rbp), %eax
	cltq
	salq	$3, %rax
	addq	%rdx, %rax
	.loc 1 168 10
	movq	(%rax), %rax
	movq	%rax, -56(%rbp)
	.loc 1 169 14
	movq	-56(%rbp), %rax
	movq	16(%rax), %rdx
	.loc 1 169 23
	movl	-84(%rbp), %eax
	cltq
	.loc 1 169 10
	cmpq	%rax, %rdx
	jne	.L30
	.loc 1 171 9
	movq	-56(%rbp), %rax
	movq	104(%rax), %rax
	.loc 1 171 5
	testq	%rax, %rax
	je	.L30
	.loc 1 174 11
	movq	-56(%rbp), %rax
	movl	116(%rax), %edx
	.loc 1 174 29
	movq	-104(%rbp), %rax
	movl	1304(%rax), %ecx
	.loc 1 174 45
	movq	-104(%rbp), %rax
	movl	1308(%rax), %eax
	.loc 1 174 42
	imull	%ecx, %eax
	.loc 1 174 58
	sall	$3, %eax
	.loc 1 174 7
	cmpl	%eax, %edx
	jne	.L30
	.loc 1 176 13
	movl	$0, -80(%rbp)
	.loc 1 176 6
	jmp	.L31
.L32:
	.loc 1 178 31 discriminator 3
	movq	-56(%rbp), %rax
	movq	104(%rax), %rdx
	.loc 1 178 44 discriminator 3
	movl	-80(%rbp), %eax
	cltq
	addq	%rdx, %rax
	movzbl	(%rax), %eax
	.loc 1 178 8 discriminator 3
	movzbl	%al, %edx
	movq	-104(%rbp), %rax
	movl	%edx, %esi
	movq	%rax, %rdi
	call	bf_AddTargetData@PLT
	.loc 1 176 39 discriminator 3
	addl	$1, -80(%rbp)
.L31:
	.loc 1 176 24 discriminator 1
	movq	-56(%rbp), %rax
	movl	116(%rax), %eax
	.loc 1 176 20 discriminator 1
	cmpl	%eax, -80(%rbp)
	jl	.L32
	.loc 1 180 23
	movl	$1, -68(%rbp)
.L30:
	.loc 1 166 37 discriminator 2
	addl	$1, -88(%rbp)
.L29:
	.loc 1 166 23 discriminator 1
	movq	-104(%rbp), %rax
	movl	16(%rax), %eax
	.loc 1 166 19 discriminator 1
	cmpl	%eax, -88(%rbp)
	jl	.L33
	.loc 1 185 8
	cmpl	$0, -68(%rbp)
	jne	.L34
	.loc 1 187 14
	movl	$0, -80(%rbp)
	.loc 1 187 7
	jmp	.L35
.L36:
	.loc 1 189 2 discriminator 3
	movq	-104(%rbp), %rax
	movl	$0, %esi
	movq	%rax, %rdi
	call	bf_AddTargetData@PLT
	.loc 1 187 59 discriminator 3
	addl	$1, -80(%rbp)
.L35:
	.loc 1 187 25 discriminator 1
	movq	-104(%rbp), %rax
	movl	1304(%rax), %edx
	.loc 1 187 41 discriminator 1
	movq	-104(%rbp), %rax
	movl	1308(%rax), %eax
	.loc 1 187 38 discriminator 1
	imull	%edx, %eax
	.loc 1 187 54 discriminator 1
	sall	$3, %eax
	.loc 1 187 21 discriminator 1
	cmpl	%eax, -80(%rbp)
	jl	.L36
.L34:
	.loc 1 163 31 discriminator 2
	addl	$1, -84(%rbp)
.L28:
	.loc 1 163 21 discriminator 1
	movl	-84(%rbp), %eax
	cmpl	-72(%rbp), %eax
	jle	.L37
	.loc 1 195 3
	movq	-104(%rbp), %rax
	movl	1300(%rax), %edx
	movq	-104(%rbp), %rax
	leaq	.LC5(%rip), %rcx
	movq	%rcx, %rsi
	movq	%rax, %rdi
	movl	$0, %eax
	call	bf_Log@PLT
	.loc 1 196 1
	nop
	movq	-8(%rbp), %rax
	subq	%fs:40, %rax
	je	.L38
	call	__stack_chk_fail@PLT
.L38:
	leave
	.cfi_def_cfa 7, 8
	ret
	.cfi_endproc
.LFE7:
	.size	bf_Generate8x8Font, .-bf_Generate8x8Font
.Letext0:
	.file 2 "/usr/lib/gcc/x86_64-linux-gnu/11/include/stddef.h"
	.file 3 "/usr/include/x86_64-linux-gnu/bits/types.h"
	.file 4 "/usr/include/x86_64-linux-gnu/bits/types/struct_FILE.h"
	.file 5 "/usr/include/x86_64-linux-gnu/bits/types/FILE.h"
	.file 6 "/usr/include/x86_64-linux-gnu/bits/stdint-uintn.h"
	.file 7 "bdf_glyph.h"
	.file 8 "bdf_font.h"
	.section	.note.GNU-stack,"",@progbits
	.section	.note.gnu.property,"a"
	.align 8
	.long	1f - 0f
	.long	4f - 1f
	.long	5
0:
	.string	"GNU"
1:
	.align 8
	.long	0xc0000002
	.long	3f - 2f
2:
	.long	0x3
3:
	.align 8
4:
